; ModuleID = '49/820.c'
source_filename = "49/820.c"
target datalayout = "e-m:e-p270:32:32-p271:32:32-p272:64:64-i64:64-f80:128-n8:16:32:64-S128"
target triple = "x86_64-pc-linux-gnu"

@.str = private unnamed_addr constant [3 x i8] c"%c\00", align 1
@.str.1 = private unnamed_addr constant [2 x i8] c"\0A\00", align 1

; Function Attrs: noinline nounwind uwtable
define dso_local i32 @ju(i8* %0, i32 %1, i32 %2) #0 {
  %4 = alloca i8*, align 8
  %5 = alloca i32, align 4
  %6 = alloca i32, align 4
  %7 = alloca i32, align 4
  %8 = alloca i32, align 4
  store i8* %0, i8** %4, align 8
  store i32 %1, i32* %5, align 4
  store i32 %2, i32* %6, align 4
  store i32 1, i32* %8, align 4
  %9 = load i32, i32* %6, align 4
  store i32 %9, i32* %7, align 4
  br label %10

10:                                               ; preds = %39, %3
  %11 = load i32, i32* %7, align 4
  %12 = load i32, i32* %6, align 4
  %13 = load i32, i32* %5, align 4
  %14 = add nsw i32 %12, %13
  %15 = sub nsw i32 %14, 1
  %16 = icmp sle i32 %11, %15
  br i1 %16, label %17, label %42

17:                                               ; preds = %10
  %18 = load i8*, i8** %4, align 8
  %19 = load i32, i32* %7, align 4
  %20 = sext i32 %19 to i64
  %21 = getelementptr inbounds i8, i8* %18, i64 %20
  %22 = load i8, i8* %21, align 1
  %23 = sext i8 %22 to i32
  %24 = load i8*, i8** %4, align 8
  %25 = load i32, i32* %6, align 4
  %26 = mul nsw i32 2, %25
  %27 = load i32, i32* %5, align 4
  %28 = add nsw i32 %26, %27
  %29 = sub nsw i32 %28, 1
  %30 = load i32, i32* %7, align 4
  %31 = sub nsw i32 %29, %30
  %32 = sext i32 %31 to i64
  %33 = getelementptr inbounds i8, i8* %24, i64 %32
  %34 = load i8, i8* %33, align 1
  %35 = sext i8 %34 to i32
  %36 = icmp ne i32 %23, %35
  br i1 %36, label %37, label %38

37:                                               ; preds = %17
  store i32 0, i32* %8, align 4
  br label %38

38:                                               ; preds = %37, %17
  br label %39

39:                                               ; preds = %38
  %40 = load i32, i32* %7, align 4
  %41 = add nsw i32 %40, 1
  store i32 %41, i32* %7, align 4
  br label %10

42:                                               ; preds = %10
  %43 = load i32, i32* %8, align 4
  ret i32 %43
}

; Function Attrs: noinline nounwind uwtable
define dso_local void @main() #0 {
  %1 = alloca [501 x i8], align 16
  %2 = alloca i8, align 1
  %3 = alloca i32, align 4
  %4 = alloca i32, align 4
  %5 = alloca i32, align 4
  %6 = alloca i32, align 4
  store i32 1, i32* %3, align 4
  br label %7

7:                                                ; preds = %12, %0
  %8 = call i32 @getchar()
  %9 = trunc i32 %8 to i8
  store i8 %9, i8* %2, align 1
  %10 = sext i8 %9 to i32
  %11 = icmp ne i32 %10, 10
  br i1 %11, label %12, label %19

12:                                               ; preds = %7
  %13 = load i8, i8* %2, align 1
  %14 = load i32, i32* %3, align 4
  %15 = sext i32 %14 to i64
  %16 = getelementptr inbounds [501 x i8], [501 x i8]* %1, i64 0, i64 %15
  store i8 %13, i8* %16, align 1
  %17 = load i32, i32* %3, align 4
  %18 = add nsw i32 %17, 1
  store i32 %18, i32* %3, align 4
  br label %7

19:                                               ; preds = %7
  %20 = load i32, i32* %3, align 4
  %21 = add nsw i32 %20, -1
  store i32 %21, i32* %3, align 4
  store i32 2, i32* %4, align 4
  br label %22

22:                                               ; preds = %64, %19
  %23 = load i32, i32* %4, align 4
  %24 = load i32, i32* %3, align 4
  %25 = icmp sle i32 %23, %24
  br i1 %25, label %26, label %67

26:                                               ; preds = %22
  store i32 1, i32* %5, align 4
  br label %27

27:                                               ; preds = %60, %26
  %28 = load i32, i32* %5, align 4
  %29 = load i32, i32* %3, align 4
  %30 = sub nsw i32 %29, 1
  %31 = icmp sle i32 %28, %30
  br i1 %31, label %32, label %63

32:                                               ; preds = %27
  %33 = getelementptr inbounds [501 x i8], [501 x i8]* %1, i64 0, i64 0
  %34 = load i32, i32* %4, align 4
  %35 = load i32, i32* %5, align 4
  %36 = call i32 @ju(i8* %33, i32 %34, i32 %35)
  %37 = icmp eq i32 %36, 1
  br i1 %37, label %38, label %59

38:                                               ; preds = %32
  %39 = load i32, i32* %5, align 4
  store i32 %39, i32* %6, align 4
  br label %40

40:                                               ; preds = %54, %38
  %41 = load i32, i32* %6, align 4
  %42 = load i32, i32* %5, align 4
  %43 = load i32, i32* %4, align 4
  %44 = add nsw i32 %42, %43
  %45 = sub nsw i32 %44, 1
  %46 = icmp sle i32 %41, %45
  br i1 %46, label %47, label %57

47:                                               ; preds = %40
  %48 = load i32, i32* %6, align 4
  %49 = sext i32 %48 to i64
  %50 = getelementptr inbounds [501 x i8], [501 x i8]* %1, i64 0, i64 %49
  %51 = load i8, i8* %50, align 1
  %52 = sext i8 %51 to i32
  %53 = call i32 (i8*, ...) @printf(i8* getelementptr inbounds ([3 x i8], [3 x i8]* @.str, i64 0, i64 0), i32 %52)
  br label %54

54:                                               ; preds = %47
  %55 = load i32, i32* %6, align 4
  %56 = add nsw i32 %55, 1
  store i32 %56, i32* %6, align 4
  br label %40

57:                                               ; preds = %40
  %58 = call i32 (i8*, ...) @printf(i8* getelementptr inbounds ([2 x i8], [2 x i8]* @.str.1, i64 0, i64 0))
  br label %59

59:                                               ; preds = %57, %32
  br label %60

60:                                               ; preds = %59
  %61 = load i32, i32* %5, align 4
  %62 = add nsw i32 %61, 1
  store i32 %62, i32* %5, align 4
  br label %27

63:                                               ; preds = %27
  br label %64

64:                                               ; preds = %63
  %65 = load i32, i32* %4, align 4
  %66 = add nsw i32 %65, 1
  store i32 %66, i32* %4, align 4
  br label %22

67:                                               ; preds = %22
  ret void
}

declare dso_local i32 @getchar() #1

declare dso_local i32 @printf(i8*, ...) #1


!llvm.module.flags = !{!0}
!llvm.ident = !{!1}

!0 = !{i32 1, !"wchar_size", i32 4}
!1 = !{!"clang version 10.0.0-4ubuntu1 "}
